target datalayout = "e-m:e-p270:32:32-p271:32:32-p272:64:64-i64:64-i128:128-f80:128-n8:16:32:64-S128"
target triple = "x86_64-pc-linux-gnu"

%struct.IDAMemRec = type { ptr, double, ptr, ptr, i32, double, double, ptr, i32, i32, ptr, ptr, i32, i32, [6 x ptr], [6 x double], [6 x double], [6 x double], [6 x double], [6 x double], ptr, ptr, ptr, ptr, ptr, ptr, ptr, ptr, ptr, ptr, ptr, ptr, ptr, ptr, ptr, ptr, ptr, double, ptr, ptr, i32, i32, i32, i32, i32, i32, i32, i32, double, double, double, i32, double, i32, i32, i32, i32, i32, double, double, double, double, double, double, double, double, double, double, double, double, double, double, double, double, i32, i32, i32, i32, i64, double, double, double, double, double, double, double, double, double, i64, i64, i64, i64, i64, i64, i64, i64, i64, i64, i64, double, i32, i32, i32, i32, i32, ptr, i32, ptr, ptr, ptr, ptr, ptr, ptr, ptr, double, i32, ptr, i32, ptr, ptr, double, double, double, ptr, ptr, ptr, double, double, i32, i32, i64, ptr, i32, [6 x double], [5 x double], [6 x ptr], [6 x ptr] }

@.str = private unnamed_addr constant [109 x i8] c"generated/home/dtcxzyw/WorkSpace/Projects/compilers/llvm-opt-benchmark/bench/sundials/sundials/src/ida/ida.c\00", align 1
@.str.3 = private unnamed_addr constant [24 x i8] c"ida_mem = NULL illegal.\00", align 1
@__func__.IDAGetDky = private unnamed_addr constant [10 x i8] c"IDAGetDky\00", align 1
@.str.27 = private unnamed_addr constant [20 x i8] c"dky = NULL illegal.\00", align 1
@.str.28 = private unnamed_addr constant [21 x i8] c"Illegal value for k.\00", align 1
@.str.29 = private unnamed_addr constant [75 x i8] c"Illegal value for t.t = %lg is not between tcur - hu = %lg and tcur = %lg.\00", align 1

; Function Attrs: nounwind uwtable
define i32 @IDAGetDky(ptr noundef %0, double noundef %1, i32 noundef %2, ptr noundef %3) #0 {
  %5 = alloca i32, align 4
  %6 = alloca ptr, align 8
  %7 = alloca double, align 8
  %8 = alloca i32, align 4
  %9 = alloca ptr, align 8
  %10 = alloca ptr, align 8
  %11 = alloca double, align 8
  %12 = alloca double, align 8
  %13 = alloca double, align 8
  %14 = alloca double, align 8
  %15 = alloca i32, align 4
  %16 = alloca i32, align 4
  %17 = alloca i32, align 4
  %18 = alloca [6 x double], align 16
  %19 = alloca [6 x double], align 16
  %20 = alloca i32, align 4
  store ptr %0, ptr %6, align 8, !tbaa !73
  store double %1, ptr %7, align 8, !tbaa !74
  store i32 %2, ptr %8, align 4, !tbaa !64
  store ptr %3, ptr %9, align 8, !tbaa !75
  call void @llvm.lifetime.start.p0(i64 8, ptr %10) #10
  call void @llvm.lifetime.start.p0(i64 8, ptr %11) #10
  call void @llvm.lifetime.start.p0(i64 8, ptr %12) #10
  call void @llvm.lifetime.start.p0(i64 8, ptr %13) #10
  call void @llvm.lifetime.start.p0(i64 8, ptr %14) #10
  call void @llvm.lifetime.start.p0(i64 4, ptr %15) #10
  call void @llvm.lifetime.start.p0(i64 4, ptr %16) #10
  call void @llvm.lifetime.start.p0(i64 4, ptr %17) #10
  call void @llvm.lifetime.start.p0(i64 48, ptr %18) #10
  call void @llvm.lifetime.start.p0(i64 48, ptr %19) #10
  %21 = load ptr, ptr %6, align 8, !tbaa !73
  %22 = icmp eq ptr %21, null
  br i1 %22, label %23, label %24

23:                                               ; preds = %4
  call void (ptr, i32, i32, ptr, ptr, ptr, ...) @IDAProcessError(ptr noundef null, i32 noundef -20, i32 noundef 1517, ptr noundef @__func__.IDAGetDky, ptr noundef @.str, ptr noundef @.str.3)
  store i32 -20, ptr %5, align 4
  store i32 1, ptr %20, align 4
  br label %255

24:                                               ; preds = %4
  %25 = load ptr, ptr %6, align 8, !tbaa !73
  store ptr %25, ptr %10, align 8, !tbaa !8
  %26 = load ptr, ptr %9, align 8, !tbaa !75
  %27 = icmp eq ptr %26, null
  br i1 %27, label %28, label %30

28:                                               ; preds = %24
  %29 = load ptr, ptr %10, align 8, !tbaa !8
  call void (ptr, i32, i32, ptr, ptr, ptr, ...) @IDAProcessError(ptr noundef %29, i32 noundef -27, i32 noundef 1526, ptr noundef @__func__.IDAGetDky, ptr noundef @.str, ptr noundef @.str.27)
  store i32 -27, ptr %5, align 4
  store i32 1, ptr %20, align 4
  br label %255

30:                                               ; preds = %24
  %31 = load i32, ptr %8, align 4, !tbaa !64
  %32 = icmp slt i32 %31, 0
  br i1 %32, label %39, label %33

33:                                               ; preds = %30
  %34 = load i32, ptr %8, align 4, !tbaa !64
  %35 = load ptr, ptr %10, align 8, !tbaa !8
  %36 = getelementptr inbounds nuw %struct.IDAMemRec, ptr %35, i32 0, i32 54
  %37 = load i32, ptr %36, align 4, !tbaa !98
  %38 = icmp sgt i32 %34, %37
  br i1 %38, label %39, label %41

39:                                               ; preds = %33, %30
  %40 = load ptr, ptr %10, align 8, !tbaa !8
  call void (ptr, i32, i32, ptr, ptr, ptr, ...) @IDAProcessError(ptr noundef %40, i32 noundef -25, i32 noundef 1534, ptr noundef @__func__.IDAGetDky, ptr noundef @.str, ptr noundef @.str.28)
  store i32 -25, ptr %5, align 4
  store i32 1, ptr %20, align 4
  br label %255

41:                                               ; preds = %33
  %42 = load ptr, ptr %10, align 8, !tbaa !8
  %43 = getelementptr inbounds nuw %struct.IDAMemRec, ptr %42, i32 0, i32 1
  %44 = load double, ptr %43, align 8, !tbaa !19
  %45 = fmul double 1.000000e+02, %44
  %46 = load ptr, ptr %10, align 8, !tbaa !8
  %47 = getelementptr inbounds nuw %struct.IDAMemRec, ptr %46, i32 0, i32 63
  %48 = load double, ptr %47, align 8, !tbaa !83
  %49 = call double @llvm.fabs.f64(double %48)
  %50 = load ptr, ptr %10, align 8, !tbaa !8
  %51 = getelementptr inbounds nuw %struct.IDAMemRec, ptr %50, i32 0, i32 60
  %52 = load double, ptr %51, align 8, !tbaa !142
  %53 = call double @llvm.fabs.f64(double %52)
  %54 = fadd double %49, %53
  %55 = fmul double %45, %54
  store double %55, ptr %11, align 8, !tbaa !74
  %56 = load ptr, ptr %10, align 8, !tbaa !8
  %57 = getelementptr inbounds nuw %struct.IDAMemRec, ptr %56, i32 0, i32 60
  %58 = load double, ptr %57, align 8, !tbaa !142
  %59 = fcmp olt double %58, 0.000000e+00
  br i1 %59, label %60, label %63

60:                                               ; preds = %41
  %61 = load double, ptr %11, align 8, !tbaa !74
  %62 = fneg double %61
  store double %62, ptr %11, align 8, !tbaa !74
  br label %63

63:                                               ; preds = %60, %41
  %64 = load ptr, ptr %10, align 8, !tbaa !8
  %65 = getelementptr inbounds nuw %struct.IDAMemRec, ptr %64, i32 0, i32 63
  %66 = load double, ptr %65, align 8, !tbaa !83
  %67 = load ptr, ptr %10, align 8, !tbaa !8
  %68 = getelementptr inbounds nuw %struct.IDAMemRec, ptr %67, i32 0, i32 61
  %69 = load double, ptr %68, align 8, !tbaa !99
  %70 = fsub double %66, %69
  %71 = load double, ptr %11, align 8, !tbaa !74
  %72 = fsub double %70, %71
  store double %72, ptr %12, align 8, !tbaa !74
  %73 = load double, ptr %7, align 8, !tbaa !74
  %74 = load double, ptr %12, align 8, !tbaa !74
  %75 = fsub double %73, %74
  %76 = load ptr, ptr %10, align 8, !tbaa !8
  %77 = getelementptr inbounds nuw %struct.IDAMemRec, ptr %76, i32 0, i32 60
  %78 = load double, ptr %77, align 8, !tbaa !142
  %79 = fmul double %75, %78
  %80 = fcmp olt double %79, 0.000000e+00
  br i1 %80, label %81, label %94

81:                                               ; preds = %63
  %82 = load ptr, ptr %10, align 8, !tbaa !8
  %83 = load double, ptr %7, align 8, !tbaa !74
  %84 = load ptr, ptr %10, align 8, !tbaa !8
  %85 = getelementptr inbounds nuw %struct.IDAMemRec, ptr %84, i32 0, i32 63
  %86 = load double, ptr %85, align 8, !tbaa !83
  %87 = load ptr, ptr %10, align 8, !tbaa !8
  %88 = getelementptr inbounds nuw %struct.IDAMemRec, ptr %87, i32 0, i32 61
  %89 = load double, ptr %88, align 8, !tbaa !99
  %90 = fsub double %86, %89
  %91 = load ptr, ptr %10, align 8, !tbaa !8
  %92 = getelementptr inbounds nuw %struct.IDAMemRec, ptr %91, i32 0, i32 63
  %93 = load double, ptr %92, align 8, !tbaa !83
  call void (ptr, i32, i32, ptr, ptr, ptr, ...) @IDAProcessError(ptr noundef %82, i32 noundef -26, i32 noundef 1547, ptr noundef @__func__.IDAGetDky, ptr noundef @.str, ptr noundef @.str.29, double noundef %83, double noundef %90, double noundef %93)
  store i32 -26, ptr %5, align 4
  store i32 1, ptr %20, align 4
  br label %255

94:                                               ; preds = %63
  store i32 0, ptr %15, align 4, !tbaa !64
  br label %95

95:                                               ; preds = %105, %94
  %96 = load i32, ptr %15, align 4, !tbaa !64
  %97 = icmp slt i32 %96, 6
  br i1 %97, label %98, label %108

98:                                               ; preds = %95
  %99 = load i32, ptr %15, align 4, !tbaa !64
  %100 = sext i32 %99 to i64
  %101 = getelementptr inbounds [6 x double], ptr %18, i64 0, i64 %100
  store double 0.000000e+00, ptr %101, align 8, !tbaa !74
  %102 = load i32, ptr %15, align 4, !tbaa !64
  %103 = sext i32 %102 to i64
  %104 = getelementptr inbounds [6 x double], ptr %19, i64 0, i64 %103
  store double 0.000000e+00, ptr %104, align 8, !tbaa !74
  br label %105

105:                                              ; preds = %98
  %106 = load i32, ptr %15, align 4, !tbaa !64
  %107 = add nsw i32 %106, 1
  store i32 %107, ptr %15, align 4, !tbaa !64
  br label %95

108:                                              ; preds = %95
  %109 = load double, ptr %7, align 8, !tbaa !74
  %110 = load ptr, ptr %10, align 8, !tbaa !8
  %111 = getelementptr inbounds nuw %struct.IDAMemRec, ptr %110, i32 0, i32 63
  %112 = load double, ptr %111, align 8, !tbaa !83
  %113 = fsub double %109, %112
  store double %113, ptr %13, align 8, !tbaa !74
  store i32 0, ptr %15, align 4, !tbaa !64
  br label %114

114:                                              ; preds = %229, %108
  %115 = load i32, ptr %15, align 4, !tbaa !64
  %116 = load i32, ptr %8, align 4, !tbaa !64
  %117 = icmp sle i32 %115, %116
  br i1 %117, label %118, label %232

118:                                              ; preds = %114
  %119 = load i32, ptr %15, align 4, !tbaa !64
  %120 = icmp eq i32 %119, 0
  br i1 %120, label %121, label %125

121:                                              ; preds = %118
  %122 = load i32, ptr %15, align 4, !tbaa !64
  %123 = sext i32 %122 to i64
  %124 = getelementptr inbounds [6 x double], ptr %18, i64 0, i64 %123
  store double 1.000000e+00, ptr %124, align 8, !tbaa !74
  store double 0.000000e+00, ptr %14, align 8, !tbaa !74
  br label %152

125:                                              ; preds = %118
  %126 = load i32, ptr %15, align 4, !tbaa !64
  %127 = sub nsw i32 %126, 1
  %128 = sext i32 %127 to i64
  %129 = getelementptr inbounds [6 x double], ptr %18, i64 0, i64 %128
  %130 = load double, ptr %129, align 8, !tbaa !74
  %131 = load i32, ptr %15, align 4, !tbaa !64
  %132 = sitofp i32 %131 to double
  %133 = fmul double %130, %132
  %134 = load ptr, ptr %10, align 8, !tbaa !8
  %135 = getelementptr inbounds nuw %struct.IDAMemRec, ptr %134, i32 0, i32 15
  %136 = load i32, ptr %15, align 4, !tbaa !64
  %137 = sub nsw i32 %136, 1
  %138 = sext i32 %137 to i64
  %139 = getelementptr inbounds [6 x double], ptr %135, i64 0, i64 %138
  %140 = load double, ptr %139, align 8, !tbaa !74
  %141 = fdiv double %133, %140
  %142 = load i32, ptr %15, align 4, !tbaa !64
  %143 = sext i32 %142 to i64
  %144 = getelementptr inbounds [6 x double], ptr %18, i64 0, i64 %143
  store double %141, ptr %144, align 8, !tbaa !74
  %145 = load ptr, ptr %10, align 8, !tbaa !8
  %146 = getelementptr inbounds nuw %struct.IDAMemRec, ptr %145, i32 0, i32 15
  %147 = load i32, ptr %15, align 4, !tbaa !64
  %148 = sub nsw i32 %147, 1
  %149 = sext i32 %148 to i64
  %150 = getelementptr inbounds [6 x double], ptr %146, i64 0, i64 %149
  %151 = load double, ptr %150, align 8, !tbaa !74
  store double %151, ptr %14, align 8, !tbaa !74
  br label %152

152:                                              ; preds = %125, %121
  %153 = load i32, ptr %15, align 4, !tbaa !64
  %154 = add nsw i32 %153, 1
  store i32 %154, ptr %16, align 4, !tbaa !64
  br label %155

155:                                              ; preds = %201, %152
  %156 = load i32, ptr %16, align 4, !tbaa !64
  %157 = load ptr, ptr %10, align 8, !tbaa !8
  %158 = getelementptr inbounds nuw %struct.IDAMemRec, ptr %157, i32 0, i32 54
  %159 = load i32, ptr %158, align 4, !tbaa !98
  %160 = load i32, ptr %8, align 4, !tbaa !64
  %161 = sub nsw i32 %159, %160
  %162 = load i32, ptr %15, align 4, !tbaa !64
  %163 = add nsw i32 %161, %162
  %164 = icmp sle i32 %156, %163
  br i1 %164, label %165, label %204

165:                                              ; preds = %155
  %166 = load i32, ptr %15, align 4, !tbaa !64
  %167 = sitofp i32 %166 to double
  %168 = load i32, ptr %16, align 4, !tbaa !64
  %169 = sub nsw i32 %168, 1
  %170 = sext i32 %169 to i64
  %171 = getelementptr inbounds [6 x double], ptr %19, i64 0, i64 %170
  %172 = load double, ptr %171, align 8, !tbaa !74
  %173 = load i32, ptr %16, align 4, !tbaa !64
  %174 = sub nsw i32 %173, 1
  %175 = sext i32 %174 to i64
  %176 = getelementptr inbounds [6 x double], ptr %18, i64 0, i64 %175
  %177 = load double, ptr %176, align 8, !tbaa !74
  %178 = load double, ptr %13, align 8, !tbaa !74
  %179 = load double, ptr %14, align 8, !tbaa !74
  %180 = fadd double %178, %179
  %181 = fmul double %177, %180
  %182 = call double @llvm.fmuladd.f64(double %167, double %172, double %181)
  %183 = load ptr, ptr %10, align 8, !tbaa !8
  %184 = getelementptr inbounds nuw %struct.IDAMemRec, ptr %183, i32 0, i32 15
  %185 = load i32, ptr %16, align 4, !tbaa !64
  %186 = sub nsw i32 %185, 1
  %187 = sext i32 %186 to i64
  %188 = getelementptr inbounds [6 x double], ptr %184, i64 0, i64 %187
  %189 = load double, ptr %188, align 8, !tbaa !74
  %190 = fdiv double %182, %189
  %191 = load i32, ptr %16, align 4, !tbaa !64
  %192 = sext i32 %191 to i64
  %193 = getelementptr inbounds [6 x double], ptr %18, i64 0, i64 %192
  store double %190, ptr %193, align 8, !tbaa !74
  %194 = load ptr, ptr %10, align 8, !tbaa !8
  %195 = getelementptr inbounds nuw %struct.IDAMemRec, ptr %194, i32 0, i32 15
  %196 = load i32, ptr %16, align 4, !tbaa !64
  %197 = sub nsw i32 %196, 1
  %198 = sext i32 %197 to i64
  %199 = getelementptr inbounds [6 x double], ptr %195, i64 0, i64 %198
  %200 = load double, ptr %199, align 8, !tbaa !74
  store double %200, ptr %14, align 8, !tbaa !74
  br label %201

201:                                              ; preds = %165
  %202 = load i32, ptr %16, align 4, !tbaa !64
  %203 = add nsw i32 %202, 1
  store i32 %203, ptr %16, align 4, !tbaa !64
  br label %155

204:                                              ; preds = %155
  %205 = load i32, ptr %15, align 4, !tbaa !64
  %206 = add nsw i32 %205, 1
  store i32 %206, ptr %16, align 4, !tbaa !64
  br label %207

207:                                              ; preds = %225, %204
  %208 = load i32, ptr %16, align 4, !tbaa !64
  %209 = load ptr, ptr %10, align 8, !tbaa !8
  %210 = getelementptr inbounds nuw %struct.IDAMemRec, ptr %209, i32 0, i32 54
  %211 = load i32, ptr %210, align 4, !tbaa !98
  %212 = load i32, ptr %8, align 4, !tbaa !64
  %213 = sub nsw i32 %211, %212
  %214 = load i32, ptr %15, align 4, !tbaa !64
  %215 = add nsw i32 %213, %214
  %216 = icmp sle i32 %208, %215
  br i1 %216, label %217, label %228

217:                                              ; preds = %207
  %218 = load i32, ptr %16, align 4, !tbaa !64
  %219 = sext i32 %218 to i64
  %220 = getelementptr inbounds [6 x double], ptr %18, i64 0, i64 %219
  %221 = load double, ptr %220, align 8, !tbaa !74
  %222 = load i32, ptr %16, align 4, !tbaa !64
  %223 = sext i32 %222 to i64
  %224 = getelementptr inbounds [6 x double], ptr %19, i64 0, i64 %223
  store double %221, ptr %224, align 8, !tbaa !74
  br label %225

225:                                              ; preds = %217
  %226 = load i32, ptr %16, align 4, !tbaa !64
  %227 = add nsw i32 %226, 1
  store i32 %227, ptr %16, align 4, !tbaa !64
  br label %207

228:                                              ; preds = %207
  br label %229

229:                                              ; preds = %228
  %230 = load i32, ptr %15, align 4, !tbaa !64
  %231 = add nsw i32 %230, 1
  store i32 %231, ptr %15, align 4, !tbaa !64
  br label %114

232:                                              ; preds = %114
  %233 = load ptr, ptr %10, align 8, !tbaa !8
  %234 = getelementptr inbounds nuw %struct.IDAMemRec, ptr %233, i32 0, i32 54
  %235 = load i32, ptr %234, align 4, !tbaa !98
  %236 = load i32, ptr %8, align 4, !tbaa !64
  %237 = sub nsw i32 %235, %236
  %238 = add nsw i32 %237, 1
  %239 = getelementptr inbounds [6 x double], ptr %18, i64 0, i64 0
  %240 = load i32, ptr %8, align 4, !tbaa !64
  %241 = sext i32 %240 to i64
  %242 = getelementptr inbounds double, ptr %239, i64 %241
  %243 = load ptr, ptr %10, align 8, !tbaa !8
  %244 = getelementptr inbounds nuw %struct.IDAMemRec, ptr %243, i32 0, i32 14
  %245 = getelementptr inbounds [6 x ptr], ptr %244, i64 0, i64 0
  %246 = load i32, ptr %8, align 4, !tbaa !64
  %247 = sext i32 %246 to i64
  %248 = getelementptr inbounds ptr, ptr %245, i64 %247
  %249 = load ptr, ptr %9, align 8, !tbaa !75
  %250 = call i32 @N_VLinearCombination(i32 noundef %238, ptr noundef %242, ptr noundef %248, ptr noundef %249)
  store i32 %250, ptr %17, align 4, !tbaa !64
  %251 = load i32, ptr %17, align 4, !tbaa !64
  %252 = icmp ne i32 %251, 0
  br i1 %252, label %253, label %254

253:                                              ; preds = %232
  store i32 -28, ptr %5, align 4
  store i32 1, ptr %20, align 4
  br label %255

254:                                              ; preds = %232
  store i32 0, ptr %5, align 4
  store i32 1, ptr %20, align 4
  br label %255

255:                                              ; preds = %254, %253, %81, %39, %28, %23
  call void @llvm.lifetime.end.p0(i64 48, ptr %19) #10
  call void @llvm.lifetime.end.p0(i64 48, ptr %18) #10
  call void @llvm.lifetime.end.p0(i64 4, ptr %17) #10
  call void @llvm.lifetime.end.p0(i64 4, ptr %16) #10
  call void @llvm.lifetime.end.p0(i64 4, ptr %15) #10
  call void @llvm.lifetime.end.p0(i64 8, ptr %14) #10
  call void @llvm.lifetime.end.p0(i64 8, ptr %13) #10
  call void @llvm.lifetime.end.p0(i64 8, ptr %12) #10
  call void @llvm.lifetime.end.p0(i64 8, ptr %11) #10
  call void @llvm.lifetime.end.p0(i64 8, ptr %10) #10
  %256 = load i32, ptr %5, align 4
  ret i32 %256
}